(lp0
VASEN
p1
aVPhil
p2
aVMATH
p3
aVHIST
p4
aVAPPM
p5
aVMATH
p6
aVMATH
p7
aVIAWP
p8
aVENGL
p9
aVPHIL
p10
aVChem
p11
aVCOMM
p12
aVPhys
p13
aVASTR
p14
aVASTR
p15
aVASTR
p16
aVASTR
p17
aVastr
p18
aVPWR
p19
aVASTR
p20
aVASTR
p21
aVENVS
p22
aS''
p23
aVMCDB
p24
aVEBIO
p25
aVASTR
p26
aVAnth
p27
aVASTR
p28
ag23
aVMATH
p29
aVAPPM
p30
aVMCDB
p31
aVCSCI
p32
aVASTR
p33
aVEDUC
p34
aVEBIO
p35
ag23
aVPHYS
p36
aVHIST
p37
ag23
aVASEN
p38
ag23
aVASTR
p39
aVPHIL
p40
aVPHIL
p41
ag23
ag23
ag23
aVPHYSICS
p42
ag23
aVECEE
p43
ag23
aVBIOC
p44
aVASTR
p45
aVMCEN
p46
aVHIST
p47
ag23
aVATOC
p48
aVMCEN
p49
aVPHYS
p50
aVAPPM
p51
aVETHN
p52
ag23
aVIAFS
p53
aVEcon
p54
aVMath
p55
aVASTR
p56
aVCSCI
p57
ag23
aVAPPM
p58
aVPHYS
p59
aVAPPM
p60
aVPhil
p61
aVPHIL
p62
aVECON
p63
ag23
aVIphy
p64
aVCEAE
p65
ag23
aVPHIL
p66
aVPHIL
p67
aVPHIL
p68
aVPHIL
p69
aVCSCI
p70
aVPHIL
p71
aVHIST
p72
aVPHIL
p73
aVPHIL
p74
aVASTR
p75
aVPhil
p76
aVPHIL
p77
aVPhil
p78
aVPHIL
p79
aVATOC
p80
aVCSCI
p81
aVGEOG
p82
aVPHIL
p83
aVAPPM
p84
aVAPPM
p85
aVGEOL
p86
aVPHIL
p87
aVIPHY
p88
aVPHIL
p89
aVMATH
p90
aVPhil
p91
aVAPPM
p92
aVPhil
p93
aVMCDB
p94
ag23
aVASTR
p95
aVMath
p96
aVPHIL
p97
aVPHIL
p98
aVPHIL
p99
aVASTR
p100
aVASTR
p101
aVCOMM
p102
aVastr
p103
aVAPPM
p104
aVPHIL
p105
aVMath
p106
aVMATH
p107
aVMath
p108
aVASTR
p109
aVMATH
p110
aVMath
p111
aVMATH
p112
aVMATH
p113
aVMATH
p114
aVAPPM
p115
aVASTR
p116
aVMATH
p117
aVMATH
p118
aVEBIO
p119
aVMATH
p120
aVAPPM
p121
aVMATH
p122
aVMath
p123
aVMATH
p124
aVACCT & FNCE
p125
aVAPPM
p126
aVGeog
p127
aVAPPM
p128
aVAPPM
p129
aVAPPM
p130
aVMath
p131
aVMDST
p132
aVPHYS
p133
aVCOMM
p134
aVJRNL
p135
aVCMCI
p136
aVMDST
p137
aVMDST
p138
aVMDST
p139
aVAPRD
p140
aVAPPM
p141
aVGeog
p142
aVPHIL
p143
aVECON
p144
aVHIST
p145
aVHIST
p146
ag23
aVGEOG
p147
aVHIST
p148
aVAPRD
p149
aVHIST
p150
ag23
aVLaw
p151
aVPHIL
p152
aVCOML
p153
ag23
ag23
aVAPRD
p154
aVJOUR
p155
aVPSCI
p156
aVHIST
p157
aVJRNL
p158
aVASTR
p159
aVCOMM
p160
aVMATH
p161
aVGEOL
p162
aVGEOL
p163
aVCSCI
p164
aVGEOG
p165
ag23
aVgeog
p166
aVSOCY
p167
aVDCMP
p168
aVMATH
p169
aVMATH
p170
aVEcon
p171
ag23
aVPHIL
p172
aVMCEN
p173
aVEcon
p174
aVCHEM
p175
aVPSYC
p176
aVPHIL
p177
ag23
aVPSYC
p178
aVPSYC
p179
aVEDUC
p180
ag23
aVPSYC
p181
aVCIRES
p182
aVSocy
p183
aVPsyc
p184
aVPHIL
p185
aVECEN
p186
ag23
aVPSYC
p187
aVSOCY
p188
aVPhil
p189
aVPSYC
p190
aVPSYC
p191
aVPSYC
p192
aVPSYC
p193
aVPSYC
p194
aVASTR
p195
aVECEE
p196
aVpsyc
p197
aVANTH
p198
aVAnth
p199
aVAnth
p200
aVLING
p201
aVComm
p202
aVLing
p203
aVATLS
p204
aVLing
p205
aVLING
p206
aVLING
p207
aVLING
p208
aVLING
p209
aVLING
p210
aVSOCY
p211
aVEDUC
p212
aVPSYC
p213
aVLING
p214
aVling
p215
aVLing
p216
aVLING
p217
aVATLS
p218
aVling
p219
aVANTH
p220
aVEBIO
p221
aVLING
p222
aVPHYS
p223
aVIPHY
p224
aVATOC
p225
aVMATH
p226
aVMATH
p227
aVAPPM
p228
aVPHIL
p229
aVGEOG
p230
ag23
aVPHYS
p231
aVGSLL
p232
ag23
aVAnth
p233
aVATLS
p234
aVPHYS
p235
aVMDST
p236
aVANTH
p237
aVEBIO
p238
aVCOMM
p239
aVPHIL
p240
aVAPPM
p241
aVChem
p242
aVASTR
p243
ag23
aVENVS
p244
aVENGL
p245
aVPHYS
p246
aVEnvs
p247
ag23
aVPSYC
p248
aVGEOL
p249
aVAPPM
p250
aVLING
p251
aVANTH
p252
aVPSYC
p253
aVMCDB
p254
aVGEOG
p255
aVHistory
p256
aVENVS & LAWS
p257
aVENVS
p258
aVCSCI
p259
aVATLS
p260
aVPSYC
p261
aVMCEN
p262
aVPSCI
p263
aVENVS
p264
aVComm
p265
aVAPPM
p266
aVEngl
p267
aVCSCI
p268
aVEBIO
p269
aVGEOG
p270
aVPSCI
p271
aVPSCI
p272
aVMATH
p273
aVGEOL
p274
aVMath
p275
aVMATH
p276
aVENVS
p277
aVCOMM
p278
aVENVS
p279
aVENVS
p280
aVGSLL
p281
aVMATH
p282
aVAPPM
p283
aVNRSC
p284
aVMATH
p285
aVEBIO
p286
aVENVS
p287
aVPHYS
p288
aVEDUC
p289
aVMSE
p290
ag23
aVPHYS
p291
aVMATH
p292
aVLING
p293
aVPSYC
p294
aVENGL
p295
aVCSCI
p296
ag23
aVASEN
p297
aVTHTR
p298
aVAPPM
p299
aVPhys
p300
ag23
aVLING
p301
aVASTR
p302
aVGEOG
p303
aVIPHY
p304
aVENVD
p305
aVChem
p306
aVMATH
p307
aVENVS
p308
aVPHYS
p309
aVPHYS
p310
aVPHYS
p311
aVCEAE
p312
aVPHIL
p313
aVGRMN
p314
aVETHN
p315
aVPHYS
p316
aVGEOG
p317
aVEBIO
p318
aVCLAS
p319
aVPHYS
p320
aVGSLL
p321
aVCOMM
p322
aVCHEM
p323
aVMDST
p324
ag23
aVMATH
p325
aVLING
p326
aVAPPM
p327
aVEBIO
p328
aVAPPM
p329
ag23
aVBiochemistry
p330
aVCHEM
p331
aVATLS
p332
aVAPPM
p333
aVCSCI
p334
aVMATH
p335
aVENVS
p336
aVAPPM
p337
aVMCEN
p338
aVCSCI
p339
aVCOMM
p340
aVCOMM
p341
aVENGL
p342
aVAPPM
p343
aVCOMM
p344
aVPhil
p345
aVPsyc
p346
aVSOCY
p347
aVSOCY
p348
aVGEOG
p349
aVECEE
p350
aVPSYC
p351
aVAPPM
p352
ag23
aVMSE
p353
aVPHIL
p354
aVPHIL
p355
ag23
aVPHIL
p356
aVastr
p357
aVPHIL
p358
aVPHIL
p359
aVMATH
p360
aVMATH
p361
aVAPPM
p362
aVMATH
p363
aVPHIL
p364
aVENGL
p365
aVHIST
p366
aVHIST
p367
aVPHIL
p368
aVHIST
p369
aVENGL
p370
aVappm
p371
aVHist
p372
ag23
aVINFO
p373
aVMCDB
p374
aVCHEM
p375
aVPHIL
p376
aVMATH
p377
aVHIST
p378
aVebio
p379
aVGEOG
p380
aVHIST
p381
aVHist
p382
aVGEOG
p383
aVENVS
p384
aVGEOG
p385
aVMSEN
p386
aVComm
p387
ag23
aVCSCI
p388
ag23
aVENGL
p389
aVCEAE
p390
aVENGL
p391
aVENGL
p392
aVCEAE
p393
aVENGL
p394
aVEngl
p395
aVASTR
p396
aVENGL
p397
aVENGL
p398
aVCEAE
p399
aVANTH
p400
aVENGL
p401
aVEbio
p402
aVMENV
p403
aVENGL
p404
aVEBIO
p405
aVCVEN
p406
aVENGL
p407
aVGEOL
p408
aVGEOL
p409
aVGEOL
p410
aVGEOL
p411
aVGEOL
p412
aVGEOL
p413
aVGEOL
p414
aVGEOL
p415
aVGEOL
p416
aVGEOL
p417
aVENGL
p418
aVGEOL
p419
aVMCEN
p420
aVGEOL
p421
aVGEOL
p422
aVGEOL
p423
aVGEOL
p424
aVGEOL
p425
aVENGL
p426
aViAWP
p427
aVSpan
p428
aVPHIL
p429
aVEBIO
p430
aVASEN
p431
aVEnglish
p432
aVEBIO
p433
aVENGL
p434
aVHIST
p435
aVASTR
p436
aVASTR
p437
aVENGL
p438
aVEBIO
p439
aVEBIO
p440
aVGeol
p441
aVMCEN
p442
aVASTR
p443
aVASTR
p444
aVLIBR
p445
aVGeol
p446
aVASTR
p447
aVASEN
p448
aVGEOL
p449
aVEBIO & IPHY
p450
aVGEOL
p451
aVGEOL
p452
aVENGL
p453
aVGSLL
p454
aVEBIO
p455
aVGEOL
p456
aVGEOL
p457
aVASTR
p458
aVASEN
p459
aVGEOL
p460
aVGEOL
p461
aVASEN
p462
aVGEOG
p463
aVENGL
p464
aVASEN
p465
aVASEN
p466
aVEECD
p467
aVASTR
p468
aVMUSC
p469
aVASTR
p470
aVGEOG
p471
aVEDUC
p472
aVMATH
p473
aVgeol
p474
aVGEOL
p475
aVHIST
p476
aVENGL
p477
ag23
aVECEE
p478
ag23
aVEDUC
p479
aVGEOL
p480
aVEDUC
p481
aVANTH
p482
aVANTH
p483
aVAPPM
p484
ag23
aVCHEM
p485
aVMSEN
p486
aVChEE
p487
aVCHEM
p488
aVASEN
p489
aVASEN
p490
aVAPPM
p491
aVASEN
p492
aVAERO
p493
aVASEN
p494
aVMCDB
p495
aVCHEN
p496
aVAPPM
p497
aVCSCI
p498
aVECEE
p499
aVANTH
p500
aVCHEM
p501
aVMSE
p502
aVAnth
p503
aVMSEN
p504
aVecee
p505
aVGEOG
p506
aVMSEN
p507
aVMSEN
p508
aVPHYS
p509
aVASEN
p510
aVASEN
p511
aVASEN
p512
aVASEN
p513
aVASEN
p514
aVASEN
p515
aVASEN
p516
aVASEN
p517
aVASEN
p518
aVASEN
p519
aVASEN
p520
aVASEN
p521
aVASEN
p522
aVASEN
p523
aVASEN
p524
aVASEN
p525
aVASEN
p526
aVASEN
p527
aVASEN
p528
aVASEN
p529
aVASEN
p530
aVASEN
p531
aVASEN
p532
a.